target datalayout = "e-m:e-p270:32:32-p271:32:32-p272:64:64-i64:64-i128:128-f80:128-n8:16:32:64-S128"
target triple = "x86_64-pc-linux-gnu"

%"class.std::shared_ptr" = type { %"class.std::__shared_ptr" }
%"class.std::__shared_ptr" = type { ptr, %"class.std::__shared_count" }
%"class.std::__shared_count" = type { ptr }
%"class.std::vector.9" = type { %"struct.std::_Vector_base.10" }
%"struct.std::_Vector_base.10" = type { %"struct.std::_Vector_base<double, std::allocator<double>>::_Vector_impl" }
%"struct.std::_Vector_base<double, std::allocator<double>>::_Vector_impl" = type { %"struct.std::_Vector_base<double, std::allocator<double>>::_Vector_impl_data" }
%"struct.std::_Vector_base<double, std::allocator<double>>::_Vector_impl_data" = type { ptr, ptr, ptr }
%"class.open_spiel::garnet::GarnetState" = type { %"class.open_spiel::State.base", i32, i32, i32, i32, i32, double, double, i32, i8, i32, i32, i32, double, %"class.std::vector.9", %"class.std::vector.14", %"class.std::vector.9", %"class.std::vector.9", %"class.std::vector.9" }
%"class.open_spiel::State.base" = type <{ ptr, %"class.std::shared_ptr", i32, i32, %"class.std::vector", i32 }>
%"class.std::vector" = type { %"struct.std::_Vector_base" }
%"struct.std::_Vector_base" = type { %"struct.std::_Vector_base<open_spiel::State::PlayerAction, std::allocator<open_spiel::State::PlayerAction>>::_Vector_impl" }
%"struct.std::_Vector_base<open_spiel::State::PlayerAction, std::allocator<open_spiel::State::PlayerAction>>::_Vector_impl" = type { %"struct.std::_Vector_base<open_spiel::State::PlayerAction, std::allocator<open_spiel::State::PlayerAction>>::_Vector_impl_data" }
%"struct.std::_Vector_base<open_spiel::State::PlayerAction, std::allocator<open_spiel::State::PlayerAction>>::_Vector_impl_data" = type { ptr, ptr, ptr }
%"class.std::vector.14" = type { %"struct.std::_Vector_base.15" }
%"struct.std::_Vector_base.15" = type { %"struct.std::_Vector_base<int, std::allocator<int>>::_Vector_impl" }
%"struct.std::_Vector_base<int, std::allocator<int>>::_Vector_impl" = type { %"struct.std::_Vector_base<int, std::allocator<int>>::_Vector_impl_data" }
%"struct.std::_Vector_base<int, std::allocator<int>>::_Vector_impl_data" = type { ptr, ptr, ptr }

; Function Attrs: mustprogress nounwind uwtable
define linkonce_odr noundef nonnull align 8 dereferenceable(8) ptr @_ZNKSt6vectorIdSaIdEEixEm(ptr noundef nonnull align 8 dereferenceable(24) %0, i64 noundef %1) #5 comdat align 2 {
  %3 = alloca ptr, align 8
  %4 = alloca i64, align 8
  store ptr %0, ptr %3, align 8
  store i64 %1, ptr %4, align 8
  %5 = load ptr, ptr %3, align 8
  %6 = getelementptr inbounds nuw %"struct.std::_Vector_base.10", ptr %5, i32 0, i32 0
  %7 = getelementptr inbounds nuw %"struct.std::_Vector_base<double, std::allocator<double>>::_Vector_impl_data", ptr %6, i32 0, i32 0
  %8 = load ptr, ptr %7, align 8
  %9 = load i64, ptr %4, align 8
  %10 = getelementptr inbounds double, ptr %8, i64 %9
  ret ptr %10
}

; Function Attrs: mustprogress nounwind uwtable
define noundef double @_ZNK10open_spiel6garnet11GarnetState18GetTransitionProbaEiii(ptr noundef nonnull align 8 dereferenceable(248) %0, i32 noundef %1, i32 noundef %2, i32 noundef %3) #5 align 2 {
  %5 = alloca ptr, align 8
  %6 = alloca i32, align 4
  %7 = alloca i32, align 4
  %8 = alloca i32, align 4
  store ptr %0, ptr %5, align 8
  store i32 %1, ptr %6, align 4
  store i32 %2, ptr %7, align 4
  store i32 %3, ptr %8, align 4
  %9 = load ptr, ptr %5, align 8
  %10 = getelementptr inbounds nuw %"class.open_spiel::garnet::GarnetState", ptr %9, i32 0, i32 16
  %11 = getelementptr inbounds nuw %"class.open_spiel::garnet::GarnetState", ptr %9, i32 0, i32 5
  %12 = load i32, ptr %11, align 4
  %13 = load i32, ptr %6, align 4
  %14 = getelementptr inbounds nuw %"class.open_spiel::garnet::GarnetState", ptr %9, i32 0, i32 1
  %15 = load i32, ptr %14, align 4
  %16 = load i32, ptr %7, align 4
  %17 = mul nsw i32 %15, %16
  %18 = add nsw i32 %13, %17
  %19 = mul nsw i32 %12, %18
  %20 = load i32, ptr %8, align 4
  %21 = add nsw i32 %19, %20
  %22 = sext i32 %21 to i64
  %23 = call noundef nonnull align 8 dereferenceable(8) ptr @_ZNKSt6vectorIdSaIdEEixEm(ptr noundef nonnull align 8 dereferenceable(24) %10, i64 noundef %22) #3
  %24 = load double, ptr %23, align 8
  %25 = getelementptr inbounds nuw %"class.open_spiel::garnet::GarnetState", ptr %9, i32 0, i32 17
  %26 = load i32, ptr %6, align 4
  %27 = getelementptr inbounds nuw %"class.open_spiel::garnet::GarnetState", ptr %9, i32 0, i32 1
  %28 = load i32, ptr %27, align 4
  %29 = load i32, ptr %7, align 4
  %30 = mul nsw i32 %28, %29
  %31 = add nsw i32 %26, %30
  %32 = sext i32 %31 to i64
  %33 = call noundef nonnull align 8 dereferenceable(8) ptr @_ZNKSt6vectorIdSaIdEEixEm(ptr noundef nonnull align 8 dereferenceable(24) %25, i64 noundef %32) #3
  %34 = load double, ptr %33, align 8
  %35 = fdiv double %24, %34
  ret double %35
}