; Function Attrs: mustprogress nofree norecurse nosync nounwind willreturn memory(read, inaccessiblemem: none) uwtable
define noundef double @_ZNK10open_spiel6garnet11GarnetState18GetTransitionProbaEiii(ptr nocapture noundef nonnull readonly align 8 dereferenceable(248) %0, i32 noundef %1, i32 noundef %2, i32 noundef %3) local_unnamed_addr #5 align 2 {
  %5 = getelementptr inbounds nuw i8, ptr %0, i64 176
  %6 = getelementptr inbounds nuw i8, ptr %0, i64 76
  %7 = load i32, ptr %6, align 4
  %8 = getelementptr inbounds nuw i8, ptr %0, i64 60
  %9 = load i32, ptr %8, align 4
  %10 = mul nsw i32 %9, %2
  %11 = add nsw i32 %10, %1
  %12 = mul nsw i32 %11, %7
  %13 = add nsw i32 %12, %3
  %14 = sext i32 %13 to i64
  %15 = load ptr, ptr %5, align 8
  %16 = getelementptr inbounds double, ptr %15, i64 %14
  %17 = load double, ptr %16, align 8
  %18 = getelementptr inbounds nuw i8, ptr %0, i64 200
  %19 = sext i32 %11 to i64
  %20 = load ptr, ptr %18, align 8
  %21 = getelementptr inbounds double, ptr %20, i64 %19
  %22 = load double, ptr %21, align 8
  %23 = fdiv double %17, %22
  ret double %23
}